; Function Attrs: mustprogress uwtable
define void @_ZN5boost4urls6detail10vformat_toERNS0_8url_baseENS_4core17basic_string_viewIcEENS1_11format_argsE(ptr noundef nonnull align 8 dereferenceable(216) %0, ptr %1, i64 %2, ptr %3, i64 %4) local_unnamed_addr #1 {
  %6 = alloca %"class.boost::urls::detail::format_args", align 8
  %7 = alloca %"struct.boost::urls::detail::pattern", align 8
  %8 = alloca %"class.boost::system::result", align 8
  %9 = alloca %"struct.boost::source_location", align 8
  store ptr %3, ptr %6, align 8
  %10 = getelementptr inbounds nuw i8, ptr %6, i64 8
  store i64 %4, ptr %10, align 8
  call void @llvm.lifetime.start.p0(i64 136, ptr nonnull %7) #15
  call void @llvm.lifetime.start.p0(i64 144, ptr nonnull %8) #15
  call void @_ZN5boost4urls6detail13parse_patternENS_4core17basic_string_viewIcEE(ptr dead_on_unwind nonnull writable sret(%"class.boost::system::result") align 8 %8, ptr %1, i64 %2)
  call void @llvm.lifetime.start.p0(i64 24, ptr nonnull %9) #15
  store ptr @.str, ptr %9, align 8, !tbaa !3
  %11 = getelementptr inbounds nuw i8, ptr %9, i64 8
  store ptr @.str.1, ptr %11, align 8, !tbaa !9
  %12 = getelementptr inbounds nuw i8, ptr %9, i64 16
  store i32 25, ptr %12, align 8, !tbaa !10
  %13 = getelementptr inbounds nuw i8, ptr %9, i64 20
  store i32 5, ptr %13, align 4, !tbaa !11
  %14 = getelementptr inbounds nuw i8, ptr %8, i64 136
  %15 = load i32, ptr %14, align 8, !tbaa !12, !noalias !14
  %16 = icmp eq i32 %15, 1
  br i1 %16, label %_ZNO5boost6system6resultINS_4urls6detail7patternENS0_10error_codeEE5valueIS4_EENSt9enable_ifIXsr3std21is_move_constructibleIT_EE5valueES4_E4typeERKNS_15source_locationE.exit, label %17

17:                                               ; preds = %5
  call void @_ZN5boost6system26throw_exception_from_errorERKNS0_10error_codeERKNS_15source_locationE(ptr noundef nonnull align 8 dereferenceable(144) %8, ptr noundef nonnull align 8 dereferenceable(24) %9) #16, !noalias !14
  unreachable

_ZNO5boost6system6resultINS_4urls6detail7patternENS0_10error_codeEE5valueIS4_EENSt9enable_ifIXsr3std21is_move_constructibleIT_EE5valueES4_E4typeERKNS_15source_locationE.exit: ; preds = %5
  call void @llvm.memcpy.p0.p0.i64(ptr noundef nonnull align 8 dereferenceable(136) %7, ptr noundef nonnull align 8 dereferenceable(144) %8, i64 136, i1 false), !tbaa.struct !17
  call void @_ZNK5boost4urls6detail7pattern5applyERNS0_8url_baseERKNS1_11format_argsE(ptr noundef nonnull align 8 dereferenceable(134) %7, ptr noundef nonnull align 8 dereferenceable(216) %0, ptr noundef nonnull align 8 dereferenceable(16) %6)
  call void @llvm.lifetime.end.p0(i64 24, ptr nonnull %9) #15
  call void @llvm.lifetime.end.p0(i64 144, ptr nonnull %8) #15
  call void @llvm.lifetime.end.p0(i64 136, ptr nonnull %7) #15
  ret void
}